target datalayout = "e-m:e-p270:32:32-p271:32:32-p272:64:64-i64:64-i128:128-f80:128-n8:16:32:64-S128"
target triple = "x86_64-pc-linux-gnu"

%struct.ccan_list_node = type { ptr, ptr }
%struct.RBasic = type { i64, i64 }
%struct.heap_page_body = type { %struct.heap_page_header }
%struct.heap_page_header = type { ptr }
%struct.heap_page = type { i16, i16, i16, i16, i16, [2 x i8], %struct.anon.20, ptr, ptr, ptr, i64, ptr, %struct.ccan_list_node, [26 x i64], [26 x i64], [26 x i64], [26 x i64], [26 x i64], [26 x i64], [52 x i64] }
%struct.anon.20 = type { i8, [3 x i8] }
%struct.verify_internal_consistency_struct = type { ptr, i32, i64, i64, i64, i64, i64 }

@stderr = external global ptr, align 8
@.str.436 = private unnamed_addr constant [66 x i8] c"verify_internal_consistency_reachable_i: WB miss (O->Y) %s -> %s\0A\00", align 1

; Function Attrs: inlinehint nounwind sspstrong willreturn memory(read) uwtable
define internal i64 @RB_FL_TEST_RAW(i64 noundef %0, i64 noundef %1) #9 {
  %3 = alloca i64, align 8
  %4 = alloca i64, align 8
  store i64 %0, ptr %3, align 8, !tbaa !18
  store i64 %1, ptr %4, align 8, !tbaa !18
  %5 = load i64, ptr %3, align 8, !tbaa !18
  %6 = inttoptr i64 %5 to ptr
  %7 = getelementptr inbounds nuw %struct.RBasic, ptr %6, i32 0, i32 0
  %8 = load i64, ptr %7, align 8, !tbaa !117
  %9 = load i64, ptr %4, align 8, !tbaa !18
  %10 = and i64 %8, %9
  ret i64 %10
}

; Function Attrs: inlinehint nounwind sspstrong willreturn memory(read) uwtable
define internal zeroext i1 @RB_FL_ANY_RAW(i64 noundef %0, i64 noundef %1) #9 {
  %3 = alloca i64, align 8
  %4 = alloca i64, align 8
  store i64 %0, ptr %3, align 8, !tbaa !18
  store i64 %1, ptr %4, align 8, !tbaa !18
  %5 = load i64, ptr %3, align 8, !tbaa !18
  %6 = load i64, ptr %4, align 8, !tbaa !18
  %7 = call i64 @RB_FL_TEST_RAW(i64 noundef %5, i64 noundef %6) #44
  %8 = icmp ne i64 %7, 0
  ret i1 %8
}

; Function Attrs: nounwind sspstrong uwtable
define internal ptr @obj_info(i64 noundef %0) #0 {
  %2 = alloca i64, align 8
  store i64 %0, ptr %2, align 8, !tbaa !18
  %3 = load i64, ptr %2, align 8, !tbaa !18
  %4 = call ptr @obj_type_name(i64 noundef %3)
  ret ptr %4
}

; Function Attrs: inlinehint nounwind sspstrong willreturn memory(read) uwtable
define internal zeroext i1 @RB_OBJ_PROMOTED_RAW(i64 noundef %0) #9 {
  %2 = alloca i64, align 8
  store i64 %0, ptr %2, align 8, !tbaa !18
  %3 = load i64, ptr %2, align 8, !tbaa !18
  %4 = call zeroext i1 @RB_FL_ANY_RAW(i64 noundef %3, i64 noundef 32) #44
  ret i1 %4
}

; Function Attrs: inlinehint nounwind sspstrong uwtable
define internal i64 @check_rvalue_consistency(ptr noundef %0, i64 noundef %1) #2 {
  %3 = alloca ptr, align 8
  %4 = alloca i64, align 8
  store ptr %0, ptr %3, align 8, !tbaa !125
  store i64 %1, ptr %4, align 8, !tbaa !18
  %5 = load i64, ptr %4, align 8, !tbaa !18
  ret i64 %5
}

; Function Attrs: nounwind sspstrong uwtable
define dso_local ptr @rb_obj_info(i64 noundef %0) #0 {
  %2 = alloca i64, align 8
  store i64 %0, ptr %2, align 8, !tbaa !18
  %3 = load i64, ptr %2, align 8, !tbaa !18
  %4 = call ptr @obj_info(i64 noundef %3)
  ret ptr %4
}

; Function Attrs: inlinehint nounwind sspstrong uwtable
define internal i32 @RVALUE_UNCOLLECTIBLE(ptr noundef %0, i64 noundef %1) #2 {
  %3 = alloca ptr, align 8
  %4 = alloca i64, align 8
  store ptr %0, ptr %3, align 8, !tbaa !125
  store i64 %1, ptr %4, align 8, !tbaa !18
  %5 = load ptr, ptr %3, align 8, !tbaa !125
  %6 = load i64, ptr %4, align 8, !tbaa !18
  %7 = call i64 @check_rvalue_consistency(ptr noundef %5, i64 noundef %6)
  %8 = load i64, ptr %4, align 8, !tbaa !18
  %9 = and i64 %8, -65536
  %10 = inttoptr i64 %9 to ptr
  %11 = getelementptr inbounds nuw %struct.heap_page_body, ptr %10, i32 0, i32 0
  %12 = getelementptr inbounds nuw %struct.heap_page_header, ptr %11, i32 0, i32 0
  %13 = load ptr, ptr %12, align 8, !tbaa !169
  %14 = getelementptr inbounds nuw %struct.heap_page, ptr %13, i32 0, i32 15
  %15 = getelementptr [26 x i64], ptr %14, i64 0, i64 0
  %16 = load i64, ptr %4, align 8, !tbaa !18
  %17 = and i64 %16, 65535
  %18 = udiv i64 %17, 40
  %19 = udiv i64 %18, 64
  %20 = getelementptr i64, ptr %15, i64 %19
  %21 = load i64, ptr %20, align 8, !tbaa !18
  %22 = load i64, ptr %4, align 8, !tbaa !18
  %23 = and i64 %22, 65535
  %24 = udiv i64 %23, 40
  %25 = and i64 %24, 63
  %26 = shl i64 1, %25
  %27 = and i64 %21, %26
  %28 = icmp ne i64 %27, 0
  %29 = zext i1 %28 to i32
  ret i32 %29
}

; Function Attrs: inlinehint nounwind sspstrong uwtable
define internal i32 @RVALUE_REMEMBERED(ptr noundef %0, i64 noundef %1) #2 {
  %3 = alloca ptr, align 8
  %4 = alloca i64, align 8
  store ptr %0, ptr %3, align 8, !tbaa !125
  store i64 %1, ptr %4, align 8, !tbaa !18
  %5 = load ptr, ptr %3, align 8, !tbaa !125
  %6 = load i64, ptr %4, align 8, !tbaa !18
  %7 = call i64 @check_rvalue_consistency(ptr noundef %5, i64 noundef %6)
  %8 = load i64, ptr %4, align 8, !tbaa !18
  %9 = and i64 %8, -65536
  %10 = inttoptr i64 %9 to ptr
  %11 = getelementptr inbounds nuw %struct.heap_page_body, ptr %10, i32 0, i32 0
  %12 = getelementptr inbounds nuw %struct.heap_page_header, ptr %11, i32 0, i32 0
  %13 = load ptr, ptr %12, align 8, !tbaa !169
  %14 = getelementptr inbounds nuw %struct.heap_page, ptr %13, i32 0, i32 17
  %15 = load i64, ptr %4, align 8, !tbaa !18
  %16 = and i64 %15, 65535
  %17 = udiv i64 %16, 40
  %18 = udiv i64 %17, 64
  %19 = getelementptr [26 x i64], ptr %14, i64 0, i64 %18
  %20 = load i64, ptr %19, align 8, !tbaa !18
  %21 = load i64, ptr %4, align 8, !tbaa !18
  %22 = and i64 %21, 65535
  %23 = udiv i64 %22, 40
  %24 = and i64 %23, 63
  %25 = shl i64 1, %24
  %26 = and i64 %20, %25
  %27 = icmp ne i64 %26, 0
  %28 = zext i1 %27 to i32
  ret i32 %28
}

; Function Attrs: inlinehint nounwind sspstrong uwtable
define internal i32 @RVALUE_OLD_P(ptr noundef %0, i64 noundef %1) #2 {
  %3 = alloca ptr, align 8
  %4 = alloca i64, align 8
  store ptr %0, ptr %3, align 8, !tbaa !125
  store i64 %1, ptr %4, align 8, !tbaa !18
  %5 = load ptr, ptr %3, align 8, !tbaa !125
  %6 = load i64, ptr %4, align 8, !tbaa !18
  %7 = call i64 @check_rvalue_consistency(ptr noundef %5, i64 noundef %6)
  %8 = load i64, ptr %4, align 8, !tbaa !18
  %9 = call zeroext i1 @RB_OBJ_PROMOTED_RAW(i64 noundef %8) #44
  %10 = zext i1 %9 to i32
  ret i32 %10
}

; Function Attrs: nounwind sspstrong uwtable
define internal void @check_generation_i(i64 noundef %0, ptr noundef %1) #0 {
  %3 = alloca i64, align 8
  %4 = alloca ptr, align 8
  %5 = alloca ptr, align 8
  %6 = alloca i64, align 8
  store i64 %0, ptr %3, align 8, !tbaa !18
  store ptr %1, ptr %4, align 8, !tbaa !76
  call void @llvm.lifetime.start.p0(i64 8, ptr %5) #6
  %7 = load ptr, ptr %4, align 8, !tbaa !76
  store ptr %7, ptr %5, align 8, !tbaa !792
  call void @llvm.lifetime.start.p0(i64 8, ptr %6) #6
  %8 = load ptr, ptr %5, align 8, !tbaa !792
  %9 = getelementptr inbounds nuw %struct.verify_internal_consistency_struct, ptr %8, i32 0, i32 4
  %10 = load i64, ptr %9, align 8, !tbaa !794
  store i64 %10, ptr %6, align 8, !tbaa !18
  %11 = load ptr, ptr %5, align 8, !tbaa !792
  %12 = getelementptr inbounds nuw %struct.verify_internal_consistency_struct, ptr %11, i32 0, i32 0
  %13 = load ptr, ptr %12, align 8, !tbaa !783
  %14 = load i64, ptr %3, align 8, !tbaa !18
  %15 = call i32 @RVALUE_OLD_P(ptr noundef %13, i64 noundef %14)
  %16 = icmp ne i32 %15, 0
  br i1 %16, label %50, label %17

17:                                               ; preds = %2
  %18 = load ptr, ptr %5, align 8, !tbaa !792
  %19 = getelementptr inbounds nuw %struct.verify_internal_consistency_struct, ptr %18, i32 0, i32 0
  %20 = load ptr, ptr %19, align 8, !tbaa !783
  %21 = load i64, ptr %6, align 8, !tbaa !18
  %22 = call i32 @RVALUE_REMEMBERED(ptr noundef %20, i64 noundef %21)
  %23 = icmp ne i32 %22, 0
  br i1 %23, label %49, label %24

24:                                               ; preds = %17
  %25 = load ptr, ptr %5, align 8, !tbaa !792
  %26 = getelementptr inbounds nuw %struct.verify_internal_consistency_struct, ptr %25, i32 0, i32 0
  %27 = load ptr, ptr %26, align 8, !tbaa !783
  %28 = load i64, ptr %3, align 8, !tbaa !18
  %29 = call i32 @RVALUE_REMEMBERED(ptr noundef %27, i64 noundef %28)
  %30 = icmp ne i32 %29, 0
  br i1 %30, label %49, label %31

31:                                               ; preds = %24
  %32 = load ptr, ptr %5, align 8, !tbaa !792
  %33 = getelementptr inbounds nuw %struct.verify_internal_consistency_struct, ptr %32, i32 0, i32 0
  %34 = load ptr, ptr %33, align 8, !tbaa !783
  %35 = load i64, ptr %3, align 8, !tbaa !18
  %36 = call i32 @RVALUE_UNCOLLECTIBLE(ptr noundef %34, i64 noundef %35)
  %37 = icmp ne i32 %36, 0
  br i1 %37, label %49, label %38

38:                                               ; preds = %31
  %39 = load ptr, ptr @stderr, align 8, !tbaa !438
  %40 = load i64, ptr %6, align 8, !tbaa !18
  %41 = call ptr @rb_obj_info(i64 noundef %40)
  %42 = load i64, ptr %3, align 8, !tbaa !18
  %43 = call ptr @rb_obj_info(i64 noundef %42)
  %44 = call i32 (ptr, i32, ptr, ...) @__fprintf_chk(ptr noundef %39, i32 noundef 1, ptr noundef @.str.436, ptr noundef %41, ptr noundef %43)
  %45 = load ptr, ptr %5, align 8, !tbaa !792
  %46 = getelementptr inbounds nuw %struct.verify_internal_consistency_struct, ptr %45, i32 0, i32 1
  %47 = load i32, ptr %46, align 8, !tbaa !786
  %48 = add i32 %47, 1
  store i32 %48, ptr %46, align 8, !tbaa !786
  br label %49

49:                                               ; preds = %38, %31, %24, %17
  br label %50

50:                                               ; preds = %49, %2
  call void @llvm.lifetime.end.p0(i64 8, ptr %6) #6
  call void @llvm.lifetime.end.p0(i64 8, ptr %5) #6
  ret void
}