; Function Attrs: nounwind sspstrong uwtable
define internal void @check_generation_i(i64 noundef %0, ptr noundef captures(none) %1) #0 {
  %3 = getelementptr inbounds nuw i8, ptr %1, i64 32
  %4 = load i64, ptr %3, align 8, !tbaa !684
  %5 = inttoptr i64 %0 to ptr
  %6 = load i64, ptr %5, align 8, !tbaa !113
  %7 = and i64 %6, 32
  %.not = icmp eq i64 %7, 0
  br i1 %.not, label %8, label %47

8:                                                ; preds = %2
  %9 = and i64 %4, -65536
  %10 = inttoptr i64 %9 to ptr
  %11 = load ptr, ptr %10, align 65536, !tbaa !186
  %12 = getelementptr inbounds nuw i8, ptr %11, i64 904
  %.lhs.trunc.i = trunc i64 %4 to i16
  %13 = udiv i16 %.lhs.trunc.i, 40
  %14 = udiv i16 %.lhs.trunc.i, 2560
  %.zext2.i = zext nneg i16 %14 to i64
  %15 = getelementptr [26 x i64], ptr %12, i64 0, i64 %.zext2.i
  %16 = load i64, ptr %15, align 8, !tbaa !93
  %17 = and i16 %13, 63
  %18 = zext nneg i16 %17 to i64
  %19 = shl nuw i64 1, %18
  %20 = and i64 %16, %19
  %.not12 = icmp eq i64 %20, 0
  br i1 %.not12, label %21, label %47

21:                                               ; preds = %8
  %22 = and i64 %0, -65536
  %23 = inttoptr i64 %22 to ptr
  %24 = load ptr, ptr %23, align 65536, !tbaa !186
  %25 = getelementptr inbounds nuw i8, ptr %24, i64 904
  %.lhs.trunc.i15 = trunc i64 %0 to i16
  %26 = udiv i16 %.lhs.trunc.i15, 40
  %27 = udiv i16 %.lhs.trunc.i15, 2560
  %.zext2.i16 = zext nneg i16 %27 to i64
  %28 = getelementptr [26 x i64], ptr %25, i64 0, i64 %.zext2.i16
  %29 = load i64, ptr %28, align 8, !tbaa !93
  %30 = and i16 %26, 63
  %31 = zext nneg i16 %30 to i64
  %32 = shl nuw i64 1, %31
  %33 = and i64 %29, %32
  %.not13 = icmp eq i64 %33, 0
  br i1 %.not13, label %34, label %47

34:                                               ; preds = %21
  %35 = getelementptr inbounds nuw i8, ptr %24, i64 488
  %36 = getelementptr i64, ptr %35, i64 %.zext2.i16
  %37 = load i64, ptr %36, align 8, !tbaa !93
  %38 = and i64 %37, %32
  %.not14 = icmp eq i64 %38, 0
  br i1 %.not14, label %39, label %47

39:                                               ; preds = %34
  %40 = load ptr, ptr @stderr, align 8, !tbaa !465
  %41 = tail call fastcc nonnull ptr @obj_type_name(i64 noundef %4)
  %42 = tail call fastcc nonnull ptr @obj_type_name(i64 noundef %0)
  %43 = tail call i32 (ptr, i32, ptr, ...) @__fprintf_chk(ptr noundef %40, i32 noundef 1, ptr noundef nonnull @.str.436, ptr noundef nonnull %41, ptr noundef nonnull %42) #7
  %44 = getelementptr inbounds nuw i8, ptr %1, i64 8
  %45 = load i32, ptr %44, align 8, !tbaa !682
  %46 = add i32 %45, 1
  store i32 %46, ptr %44, align 8, !tbaa !682
  br label %47

47:                                               ; preds = %8, %21, %34, %39, %2
  ret void
}